target datalayout = "e-m:e-p270:32:32-p271:32:32-p272:64:64-i64:64-i128:128-f80:128-n8:16:32:64-S128"
target triple = "x86_64-unknown-linux-gnu"

%"class.icu_75::UObject" = type { ptr }
%"class.icu_75::CollationBuilder" = type { %"class.icu_75::CollationRuleParser::Sink", ptr, ptr, ptr, ptr, ptr, %"class.icu_75::CollationRootElements", i32, ptr, i8, i8, [6 x i8], %"class.icu_75::UnicodeSet", ptr, [31 x i64], i32, %"class.icu_75::UVector32", %"class.icu_75::UVector64" }
%"class.icu_75::CollationRuleParser::Sink" = type { %"class.icu_75::UObject" }
%"class.icu_75::CollationRootElements" = type <{ ptr, i32, [4 x i8] }>
%"class.icu_75::UnicodeSet" = type <{ %"class.icu_75::UnicodeFilter", ptr, i32, i32, i8, [7 x i8], ptr, ptr, i32, [4 x i8], ptr, i32, [4 x i8], ptr, ptr, [25 x i32], [4 x i8] }>
%"class.icu_75::UnicodeFilter" = type { %"class.icu_75::UnicodeFunctor", %"class.icu_75::UnicodeMatcher" }
%"class.icu_75::UnicodeFunctor" = type { %"class.icu_75::UObject" }
%"class.icu_75::UnicodeMatcher" = type { ptr }
%"class.icu_75::UVector32" = type { %"class.icu_75::UObject", i32, i32, i32, ptr }
%"class.icu_75::UVector64" = type { %"class.icu_75::UObject", i32, i32, i32, ptr }

; Function Attrs: mustprogress nounwind uwtable
define noundef signext i8 @_ZN6icu_7516CollationBuilder7sameCEsEPKliS2_i(ptr noundef %ces1, i32 noundef %ces1Length, ptr noundef %ces2, i32 noundef %ces2Length) #3 align 2 {
entry:
  %retval = alloca i8, align 1
  %ces1.addr = alloca ptr, align 8
  %ces1Length.addr = alloca i32, align 4
  %ces2.addr = alloca ptr, align 8
  %ces2Length.addr = alloca i32, align 4
  %i = alloca i32, align 4
  store ptr %ces1, ptr %ces1.addr, align 8
  store i32 %ces1Length, ptr %ces1Length.addr, align 4
  store ptr %ces2, ptr %ces2.addr, align 8
  store i32 %ces2Length, ptr %ces2Length.addr, align 4
  %0 = load i32, ptr %ces1Length.addr, align 4
  %1 = load i32, ptr %ces2Length.addr, align 4
  %cmp = icmp ne i32 %0, %1
  br i1 %cmp, label %if.then, label %if.end

if.then:                                          ; preds = %entry
  store i8 0, ptr %retval, align 1
  br label %return

if.end:                                           ; preds = %entry
  store i32 0, ptr %i, align 4
  br label %for.cond

for.cond:                                         ; preds = %for.inc, %if.end
  %2 = load i32, ptr %i, align 4
  %3 = load i32, ptr %ces1Length.addr, align 4
  %cmp1 = icmp slt i32 %2, %3
  br i1 %cmp1, label %for.body, label %for.end

for.body:                                         ; preds = %for.cond
  %4 = load ptr, ptr %ces1.addr, align 8
  %5 = load i32, ptr %i, align 4
  %idxprom = sext i32 %5 to i64
  %arrayidx = getelementptr inbounds i64, ptr %4, i64 %idxprom
  %6 = load i64, ptr %arrayidx, align 8
  %7 = load ptr, ptr %ces2.addr, align 8
  %8 = load i32, ptr %i, align 4
  %idxprom2 = sext i32 %8 to i64
  %arrayidx3 = getelementptr inbounds i64, ptr %7, i64 %idxprom2
  %9 = load i64, ptr %arrayidx3, align 8
  %cmp4 = icmp ne i64 %6, %9
  br i1 %cmp4, label %if.then5, label %if.end6

if.then5:                                         ; preds = %for.body
  store i8 0, ptr %retval, align 1
  br label %return

if.end6:                                          ; preds = %for.body
  br label %for.inc

for.inc:                                          ; preds = %if.end6
  %10 = load i32, ptr %i, align 4
  %inc = add nsw i32 %10, 1
  store i32 %inc, ptr %i, align 4
  br label %for.cond, !llvm.loop !30

for.end:                                          ; preds = %for.cond
  store i8 1, ptr %retval, align 1
  br label %return

return:                                           ; preds = %for.end, %if.then5, %if.then
  %11 = load i8, ptr %retval, align 1
  ret i8 %11
}

; Function Attrs: mustprogress nounwind uwtable
define internal noundef signext i8 @_ZL9U_FAILURE10UErrorCode(i32 noundef %code) #3 {
entry:
  %code.addr = alloca i32, align 4
  store i32 %code, ptr %code.addr, align 4
  %0 = load i32, ptr %code.addr, align 4
  %cmp = icmp sgt i32 %0, 0
  %conv = zext i1 %cmp to i8
  ret i8 %conv
}

; Function Attrs: mustprogress uwtable
define noundef i32 @_ZN6icu_7516CollationBuilder14addIfDifferentERKNS_13UnicodeStringES3_PKlijR10UErrorCode(ptr noundef nonnull align 8 dereferenceable(616) %this, ptr noundef nonnull align 8 dereferenceable(64) %prefix, ptr noundef nonnull align 8 dereferenceable(64) %str, ptr noundef %newCEs, i32 noundef %newCEsLength, i32 noundef %ce32, ptr noundef nonnull align 4 dereferenceable(4) %errorCode) #0 align 2 {
entry:
  %retval = alloca i32, align 4
  %this.addr = alloca ptr, align 8
  %prefix.addr = alloca ptr, align 8
  %str.addr = alloca ptr, align 8
  %newCEs.addr = alloca ptr, align 8
  %newCEsLength.addr = alloca i32, align 4
  %ce32.addr = alloca i32, align 4
  %errorCode.addr = alloca ptr, align 8
  %oldCEs = alloca [31 x i64], align 16
  %oldCEsLength = alloca i32, align 4
  store ptr %this, ptr %this.addr, align 8
  store ptr %prefix, ptr %prefix.addr, align 8
  store ptr %str, ptr %str.addr, align 8
  store ptr %newCEs, ptr %newCEs.addr, align 8
  store i32 %newCEsLength, ptr %newCEsLength.addr, align 4
  store i32 %ce32, ptr %ce32.addr, align 4
  store ptr %errorCode, ptr %errorCode.addr, align 8
  %this1 = load ptr, ptr %this.addr, align 8
  %0 = load ptr, ptr %errorCode.addr, align 8
  %1 = load i32, ptr %0, align 4
  %call = call noundef signext i8 @_ZL9U_FAILURE10UErrorCode(i32 noundef %1)
  %tobool = icmp ne i8 %call, 0
  br i1 %tobool, label %if.then, label %if.end

if.then:                                          ; preds = %entry
  %2 = load i32, ptr %ce32.addr, align 4
  store i32 %2, ptr %retval, align 4
  br label %return

if.end:                                           ; preds = %entry
  %dataBuilder = getelementptr inbounds %"class.icu_75::CollationBuilder", ptr %this1, i32 0, i32 8
  %3 = load ptr, ptr %dataBuilder, align 8
  %4 = load ptr, ptr %prefix.addr, align 8
  %5 = load ptr, ptr %str.addr, align 8
  %arraydecay = getelementptr inbounds [31 x i64], ptr %oldCEs, i64 0, i64 0
  %call2 = call noundef i32 @_ZN6icu_7520CollationDataBuilder6getCEsERKNS_13UnicodeStringES3_Pli(ptr noundef nonnull align 8 dereferenceable(640) %3, ptr noundef nonnull align 8 dereferenceable(64) %4, ptr noundef nonnull align 8 dereferenceable(64) %5, ptr noundef %arraydecay, i32 noundef 0)
  store i32 %call2, ptr %oldCEsLength, align 4
  %6 = load ptr, ptr %newCEs.addr, align 8
  %7 = load i32, ptr %newCEsLength.addr, align 4
  %arraydecay3 = getelementptr inbounds [31 x i64], ptr %oldCEs, i64 0, i64 0
  %8 = load i32, ptr %oldCEsLength, align 4
  %call4 = call noundef signext i8 @_ZN6icu_7516CollationBuilder7sameCEsEPKliS2_i(ptr noundef %6, i32 noundef %7, ptr noundef %arraydecay3, i32 noundef %8)
  %tobool5 = icmp ne i8 %call4, 0
  br i1 %tobool5, label %if.end12, label %if.then6

if.then6:                                         ; preds = %if.end
  %9 = load i32, ptr %ce32.addr, align 4
  %cmp = icmp eq i32 %9, -1
  br i1 %cmp, label %if.then7, label %if.end10

if.then7:                                         ; preds = %if.then6
  %dataBuilder8 = getelementptr inbounds %"class.icu_75::CollationBuilder", ptr %this1, i32 0, i32 8
  %10 = load ptr, ptr %dataBuilder8, align 8
  %11 = load ptr, ptr %newCEs.addr, align 8
  %12 = load i32, ptr %newCEsLength.addr, align 4
  %13 = load ptr, ptr %errorCode.addr, align 8
  %vtable = load ptr, ptr %10, align 8
  %vfn = getelementptr inbounds ptr, ptr %vtable, i64 4
  %14 = load ptr, ptr %vfn, align 8
  %call9 = call noundef i32 %14(ptr noundef nonnull align 8 dereferenceable(640) %10, ptr noundef %11, i32 noundef %12, ptr noundef nonnull align 4 dereferenceable(4) %13)
  store i32 %call9, ptr %ce32.addr, align 4
  br label %if.end10

if.end10:                                         ; preds = %if.then7, %if.then6
  %dataBuilder11 = getelementptr inbounds %"class.icu_75::CollationBuilder", ptr %this1, i32 0, i32 8
  %15 = load ptr, ptr %dataBuilder11, align 8
  %16 = load ptr, ptr %prefix.addr, align 8
  %17 = load ptr, ptr %str.addr, align 8
  %18 = load i32, ptr %ce32.addr, align 4
  %19 = load ptr, ptr %errorCode.addr, align 8
  call void @_ZN6icu_7520CollationDataBuilder7addCE32ERKNS_13UnicodeStringES3_jR10UErrorCode(ptr noundef nonnull align 8 dereferenceable(640) %15, ptr noundef nonnull align 8 dereferenceable(64) %16, ptr noundef nonnull align 8 dereferenceable(64) %17, i32 noundef %18, ptr noundef nonnull align 4 dereferenceable(4) %19)
  br label %if.end12

if.end12:                                         ; preds = %if.end10, %if.end
  %20 = load i32, ptr %ce32.addr, align 4
  store i32 %20, ptr %retval, align 4
  br label %return

return:                                           ; preds = %if.end12, %if.then
  %21 = load i32, ptr %retval, align 4
  ret i32 %21
}

; Function Attrs: mustprogress uwtable
define noundef i32 @_ZN6icu_7516CollationBuilder14addWithClosureERKNS_13UnicodeStringES3_PKlijR10UErrorCode(ptr noundef nonnull align 8 dereferenceable(616) %this, ptr noundef nonnull align 8 dereferenceable(64) %nfdPrefix, ptr noundef nonnull align 8 dereferenceable(64) %nfdString, ptr noundef %newCEs, i32 noundef %newCEsLength, i32 noundef %ce32, ptr noundef nonnull align 4 dereferenceable(4) %errorCode) #0 align 2 {
entry:
  %this.addr = alloca ptr, align 8
  %nfdPrefix.addr = alloca ptr, align 8
  %nfdString.addr = alloca ptr, align 8
  %newCEs.addr = alloca ptr, align 8
  %newCEsLength.addr = alloca i32, align 4
  %ce32.addr = alloca i32, align 4
  %errorCode.addr = alloca ptr, align 8
  store ptr %this, ptr %this.addr, align 8
  store ptr %nfdPrefix, ptr %nfdPrefix.addr, align 8
  store ptr %nfdString, ptr %nfdString.addr, align 8
  store ptr %newCEs, ptr %newCEs.addr, align 8
  store i32 %newCEsLength, ptr %newCEsLength.addr, align 4
  store i32 %ce32, ptr %ce32.addr, align 4
  store ptr %errorCode, ptr %errorCode.addr, align 8
  %this1 = load ptr, ptr %this.addr, align 8
  %0 = load ptr, ptr %nfdPrefix.addr, align 8
  %1 = load ptr, ptr %nfdString.addr, align 8
  %2 = load ptr, ptr %newCEs.addr, align 8
  %3 = load i32, ptr %newCEsLength.addr, align 4
  %4 = load i32, ptr %ce32.addr, align 4
  %5 = load ptr, ptr %errorCode.addr, align 8
  %call = call noundef i32 @_ZN6icu_7516CollationBuilder14addIfDifferentERKNS_13UnicodeStringES3_PKlijR10UErrorCode(ptr noundef nonnull align 8 dereferenceable(616) %this1, ptr noundef nonnull align 8 dereferenceable(64) %0, ptr noundef nonnull align 8 dereferenceable(64) %1, ptr noundef %2, i32 noundef %3, i32 noundef %4, ptr noundef nonnull align 4 dereferenceable(4) %5)
  store i32 %call, ptr %ce32.addr, align 4
  %6 = load ptr, ptr %nfdPrefix.addr, align 8
  %7 = load ptr, ptr %nfdString.addr, align 8
  %8 = load ptr, ptr %newCEs.addr, align 8
  %9 = load i32, ptr %newCEsLength.addr, align 4
  %10 = load i32, ptr %ce32.addr, align 4
  %11 = load ptr, ptr %errorCode.addr, align 8
  %call2 = call noundef i32 @_ZN6icu_7516CollationBuilder14addOnlyClosureERKNS_13UnicodeStringES3_PKlijR10UErrorCode(ptr noundef nonnull align 8 dereferenceable(616) %this1, ptr noundef nonnull align 8 dereferenceable(64) %6, ptr noundef nonnull align 8 dereferenceable(64) %7, ptr noundef %8, i32 noundef %9, i32 noundef %10, ptr noundef nonnull align 4 dereferenceable(4) %11)
  store i32 %call2, ptr %ce32.addr, align 4
  %12 = load ptr, ptr %nfdPrefix.addr, align 8
  %13 = load ptr, ptr %nfdString.addr, align 8
  %14 = load ptr, ptr %errorCode.addr, align 8
  call void @_ZN6icu_7516CollationBuilder17addTailCompositesERKNS_13UnicodeStringES3_R10UErrorCode(ptr noundef nonnull align 8 dereferenceable(616) %this1, ptr noundef nonnull align 8 dereferenceable(64) %12, ptr noundef nonnull align 8 dereferenceable(64) %13, ptr noundef nonnull align 4 dereferenceable(4) %14)
  %15 = load i32, ptr %ce32.addr, align 4
  ret i32 %15
}