; Function Attrs: mustprogress uwtable
define noundef i32 @_ZN6icu_7516CollationBuilder14addWithClosureERKNS_13UnicodeStringES3_PKlijR10UErrorCode(ptr nocapture noundef nonnull readonly align 8 dereferenceable(616) %this, ptr noundef nonnull align 8 dereferenceable(64) %nfdPrefix, ptr noundef nonnull align 8 dereferenceable(64) %nfdString, ptr noundef %newCEs, i32 noundef %newCEsLength, i32 noundef %ce32, ptr noundef nonnull align 4 dereferenceable(4) %errorCode) local_unnamed_addr #0 align 2 {
entry:
  %oldCEs.i = alloca [31 x i64], align 16
  call void @llvm.lifetime.start.p0(i64 248, ptr nonnull %oldCEs.i)
  %0 = load i32, ptr %errorCode, align 4
  %cmp.i.i = icmp slt i32 %0, 1
  br i1 %cmp.i.i, label %if.end.i, label %_ZN6icu_7516CollationBuilder14addIfDifferentERKNS_13UnicodeStringES3_PKlijR10UErrorCode.exit

if.end.i:                                         ; preds = %entry
  %dataBuilder.i = getelementptr inbounds i8, ptr %this, i64 72
  %1 = load ptr, ptr %dataBuilder.i, align 8
  %call2.i = call noundef i32 @_ZN6icu_7520CollationDataBuilder6getCEsERKNS_13UnicodeStringES3_Pli(ptr noundef nonnull align 8 dereferenceable(640) %1, ptr noundef nonnull align 8 dereferenceable(64) %nfdPrefix, ptr noundef nonnull align 8 dereferenceable(64) %nfdString, ptr noundef nonnull %oldCEs.i, i32 noundef 0)
  %cmp.not.i.i = icmp eq i32 %call2.i, %newCEsLength
  br i1 %cmp.not.i.i, label %for.cond.preheader.i.i, label %if.then6.i

for.cond.preheader.i.i:                           ; preds = %if.end.i
  %cmp15.i.i = icmp sgt i32 %newCEsLength, 0
  br i1 %cmp15.i.i, label %for.body.preheader.i.i, label %_ZN6icu_7516CollationBuilder14addIfDifferentERKNS_13UnicodeStringES3_PKlijR10UErrorCode.exit

for.body.preheader.i.i:                           ; preds = %for.cond.preheader.i.i
  %wide.trip.count.i.i = zext nneg i32 %newCEsLength to i64
  br label %for.body.i.i

for.cond.i.i:                                     ; preds = %for.body.i.i
  %indvars.iv.next.i.i = add nuw nsw i64 %indvars.iv.i.i, 1
  %exitcond.not.i.i = icmp eq i64 %indvars.iv.next.i.i, %wide.trip.count.i.i
  br i1 %exitcond.not.i.i, label %_ZN6icu_7516CollationBuilder14addIfDifferentERKNS_13UnicodeStringES3_PKlijR10UErrorCode.exit, label %for.body.i.i, !llvm.loop !10

for.body.i.i:                                     ; preds = %for.cond.i.i, %for.body.preheader.i.i
  %indvars.iv.i.i = phi i64 [ 0, %for.body.preheader.i.i ], [ %indvars.iv.next.i.i, %for.cond.i.i ]
  %arrayidx.i.i = getelementptr inbounds i64, ptr %newCEs, i64 %indvars.iv.i.i
  %2 = load i64, ptr %arrayidx.i.i, align 8
  %arrayidx3.i.i = getelementptr inbounds i64, ptr %oldCEs.i, i64 %indvars.iv.i.i
  %3 = load i64, ptr %arrayidx3.i.i, align 8
  %cmp4.not.i.i = icmp eq i64 %2, %3
  br i1 %cmp4.not.i.i, label %for.cond.i.i, label %if.then6.i

if.then6.i:                                       ; preds = %for.body.i.i, %if.end.i
  %cmp.i = icmp eq i32 %ce32, -1
  br i1 %cmp.i, label %if.then7.i, label %if.end10.i

if.then7.i:                                       ; preds = %if.then6.i
  %4 = load ptr, ptr %dataBuilder.i, align 8
  %vtable.i = load ptr, ptr %4, align 8
  %vfn.i = getelementptr inbounds i8, ptr %vtable.i, i64 32
  %5 = load ptr, ptr %vfn.i, align 8
  %call9.i = call noundef i32 %5(ptr noundef nonnull align 8 dereferenceable(640) %4, ptr noundef %newCEs, i32 noundef %newCEsLength, ptr noundef nonnull align 4 dereferenceable(4) %errorCode)
  br label %if.end10.i

if.end10.i:                                       ; preds = %if.then7.i, %if.then6.i
  %ce32.addr.0.i = phi i32 [ %call9.i, %if.then7.i ], [ %ce32, %if.then6.i ]
  %6 = load ptr, ptr %dataBuilder.i, align 8
  call void @_ZN6icu_7520CollationDataBuilder7addCE32ERKNS_13UnicodeStringES3_jR10UErrorCode(ptr noundef nonnull align 8 dereferenceable(640) %6, ptr noundef nonnull align 8 dereferenceable(64) %nfdPrefix, ptr noundef nonnull align 8 dereferenceable(64) %nfdString, i32 noundef %ce32.addr.0.i, ptr noundef nonnull align 4 dereferenceable(4) %errorCode)
  br label %_ZN6icu_7516CollationBuilder14addIfDifferentERKNS_13UnicodeStringES3_PKlijR10UErrorCode.exit

_ZN6icu_7516CollationBuilder14addIfDifferentERKNS_13UnicodeStringES3_PKlijR10UErrorCode.exit: ; preds = %for.cond.i.i, %entry, %for.cond.preheader.i.i, %if.end10.i
  %retval.0.i = phi i32 [ %ce32, %entry ], [ %ce32.addr.0.i, %if.end10.i ], [ %ce32, %for.cond.preheader.i.i ], [ %ce32, %for.cond.i.i ]
  call void @llvm.lifetime.end.p0(i64 248, ptr nonnull %oldCEs.i)
  %call2 = call noundef i32 @_ZN6icu_7516CollationBuilder14addOnlyClosureERKNS_13UnicodeStringES3_PKlijR10UErrorCode(ptr noundef nonnull align 8 dereferenceable(616) %this, ptr noundef nonnull align 8 dereferenceable(64) %nfdPrefix, ptr noundef nonnull align 8 dereferenceable(64) %nfdString, ptr noundef %newCEs, i32 noundef %newCEsLength, i32 noundef %retval.0.i, ptr noundef nonnull align 4 dereferenceable(4) %errorCode)
  call void @_ZN6icu_7516CollationBuilder17addTailCompositesERKNS_13UnicodeStringES3_R10UErrorCode(ptr noundef nonnull align 8 dereferenceable(616) %this, ptr noundef nonnull align 8 dereferenceable(64) %nfdPrefix, ptr noundef nonnull align 8 dereferenceable(64) %nfdString, ptr noundef nonnull align 4 dereferenceable(4) %errorCode)
  ret i32 %call2
}